target datalayout = "e-m:e-p270:32:32-p271:32:32-p272:64:64-i64:64-i128:128-f80:128-n8:16:32:64-S128"
target triple = "x86_64-pc-linux-gnu"

%struct.X509_VERIFY_PARAM_st = type { ptr, i64, i32, i64, i32, i32, i32, i32, ptr, ptr, i32, ptr, ptr, i64, ptr, i64 }

@.str = private unnamed_addr constant [34 x i8] c"../openssl/crypto/x509/x509_vpm.c\00", align 1
@__func__.X509_VERIFY_PARAM_set1 = private unnamed_addr constant [23 x i8] c"X509_VERIFY_PARAM_set1\00", align 1

; Function Attrs: nounwind uwtable
define i32 @X509_VERIFY_PARAM_set1(ptr noundef %0, ptr noundef %1) #0 {
  %3 = alloca i32, align 4
  %4 = alloca ptr, align 8
  %5 = alloca ptr, align 8
  %6 = alloca i64, align 8
  %7 = alloca i32, align 4
  %8 = alloca i32, align 4
  store ptr %0, ptr %4, align 8, !tbaa !3
  store ptr %1, ptr %5, align 8, !tbaa !3
  call void @llvm.lifetime.start.p0(i64 8, ptr %6) #6
  call void @llvm.lifetime.start.p0(i64 4, ptr %7) #6
  %9 = load ptr, ptr %4, align 8, !tbaa !3
  %10 = icmp eq ptr %9, null
  br i1 %10, label %11, label %12

11:                                               ; preds = %2
  call void @ERR_new()
  call void @ERR_set_debug(ptr noundef @.str, i32 noundef 226, ptr noundef @__func__.X509_VERIFY_PARAM_set1)
  call void (i32, i32, ptr, ...) @ERR_set_error(i32 noundef 11, i32 noundef 786690, ptr noundef null)
  store i32 0, ptr %3, align 4
  store i32 1, ptr %8, align 4
  br label %29

12:                                               ; preds = %2
  %13 = load ptr, ptr %4, align 8, !tbaa !3
  %14 = getelementptr inbounds nuw %struct.X509_VERIFY_PARAM_st, ptr %13, i32 0, i32 2
  %15 = load i32, ptr %14, align 8, !tbaa !26
  %16 = zext i32 %15 to i64
  store i64 %16, ptr %6, align 8, !tbaa !27
  %17 = load ptr, ptr %4, align 8, !tbaa !3
  %18 = getelementptr inbounds nuw %struct.X509_VERIFY_PARAM_st, ptr %17, i32 0, i32 2
  %19 = load i32, ptr %18, align 8, !tbaa !26
  %20 = or i32 %19, 1
  store i32 %20, ptr %18, align 8, !tbaa !26
  %21 = load ptr, ptr %4, align 8, !tbaa !3
  %22 = load ptr, ptr %5, align 8, !tbaa !3
  %23 = call i32 @X509_VERIFY_PARAM_inherit(ptr noundef %21, ptr noundef %22)
  store i32 %23, ptr %7, align 4, !tbaa !28
  %24 = load i64, ptr %6, align 8, !tbaa !27
  %25 = trunc i64 %24 to i32
  %26 = load ptr, ptr %4, align 8, !tbaa !3
  %27 = getelementptr inbounds nuw %struct.X509_VERIFY_PARAM_st, ptr %26, i32 0, i32 2
  store i32 %25, ptr %27, align 8, !tbaa !26
  %28 = load i32, ptr %7, align 4, !tbaa !28
  store i32 %28, ptr %3, align 4
  store i32 1, ptr %8, align 4
  br label %29

29:                                               ; preds = %12, %11
  call void @llvm.lifetime.end.p0(i64 4, ptr %7) #6
  call void @llvm.lifetime.end.p0(i64 8, ptr %6) #6
  %30 = load i32, ptr %3, align 4
  ret i32 %30
}