; Function Attrs: nounwind uwtable
define range(i32 0, 2) i32 @X509_VERIFY_PARAM_set1(ptr noundef captures(address_is_null) %0, ptr noundef captures(address_is_null) %1) local_unnamed_addr #0 {
  %3 = icmp eq ptr %0, null
  br i1 %3, label %4, label %5

4:                                                ; preds = %2
  tail call void @ERR_new() #9
  tail call void @ERR_set_debug(ptr noundef nonnull @.str, i32 noundef 226, ptr noundef nonnull @__func__.X509_VERIFY_PARAM_set1) #9
  tail call void (i32, i32, ptr, ...) @ERR_set_error(i32 noundef 11, i32 noundef 786690, ptr noundef null) #9
  br label %10

5:                                                ; preds = %2
  %6 = getelementptr inbounds nuw i8, ptr %0, i64 16
  %7 = load i32, ptr %6, align 8, !tbaa !20
  %8 = or i32 %7, 1
  store i32 %8, ptr %6, align 8, !tbaa !20
  %9 = tail call i32 @X509_VERIFY_PARAM_inherit(ptr noundef nonnull %0, ptr noundef %1)
  store i32 %7, ptr %6, align 8, !tbaa !20
  br label %10

10:                                               ; preds = %5, %4
  %.0 = phi i32 [ 0, %4 ], [ %9, %5 ]
  ret i32 %.0
}